target datalayout = "e-m:e-p270:32:32-p271:32:32-p272:64:64-i64:64-i128:128-f80:128-n8:16:32:64-S128"
target triple = "x86_64-unknown-linux-gnu"

; Function Attrs: fn_ret_thunk_extern mustprogress nofree norecurse nounwind null_pointer_is_valid willreturn
define internal fastcc i32 @bpf_sock_ops_get_syn(ptr nocapture noundef readonly %0, i32 noundef %1, ptr nocapture noundef writeonly %2) unnamed_addr #7 align 16 {
  %4 = getelementptr inbounds i8, ptr %0, i64 24
  %5 = load ptr, ptr %4, align 8
  %6 = icmp eq ptr %5, null
  br i1 %6, label %62, label %7

7:                                                ; preds = %3
  switch i32 %1, label %42 [
    i32 1005, label %8
    i32 1006, label %22
  ]

8:                                                ; preds = %7
  %9 = getelementptr inbounds i8, ptr %5, i64 200
  %10 = load ptr, ptr %9, align 8
  %11 = getelementptr inbounds i8, ptr %5, i64 192
  %12 = load ptr, ptr %11, align 8
  %13 = getelementptr inbounds i8, ptr %5, i64 178
  %14 = load i16, ptr %13, align 2
  %15 = zext i16 %14 to i64
  %16 = getelementptr i8, ptr %12, i64 %15
  %17 = getelementptr inbounds i8, ptr %16, i64 12
  %18 = load i16, ptr %17, align 4
  %19 = lshr i16 %18, 2
  %20 = and i16 %19, 60
  %21 = zext nneg i16 %20 to i32
  br label %108

22:                                               ; preds = %7
  %23 = getelementptr inbounds i8, ptr %5, i64 192
  %24 = load ptr, ptr %23, align 8
  %25 = getelementptr inbounds i8, ptr %5, i64 180
  %26 = load i16, ptr %25, align 4
  %27 = zext i16 %26 to i64
  %28 = getelementptr i8, ptr %24, i64 %27
  %29 = getelementptr inbounds i8, ptr %5, i64 178
  %30 = load i16, ptr %29, align 2
  %31 = zext i16 %30 to i32
  %32 = zext i16 %26 to i32
  %33 = sub nsw i32 %31, %32
  %34 = zext i16 %30 to i64
  %35 = getelementptr i8, ptr %24, i64 %34
  %36 = getelementptr inbounds i8, ptr %35, i64 12
  %37 = load i16, ptr %36, align 4
  %38 = lshr i16 %37, 2
  %39 = and i16 %38, 60
  %40 = zext nneg i16 %39 to i32
  %41 = add nsw i32 %33, %40
  br label %108

42:                                               ; preds = %7
  %43 = getelementptr inbounds i8, ptr %5, i64 192
  %44 = load ptr, ptr %43, align 8
  %45 = getelementptr inbounds i8, ptr %5, i64 182
  %46 = load i16, ptr %45, align 2
  %47 = zext i16 %46 to i64
  %48 = getelementptr i8, ptr %44, i64 %47
  %49 = zext i16 %46 to i32
  %50 = getelementptr inbounds i8, ptr %5, i64 178
  %51 = load i16, ptr %50, align 2
  %52 = zext i16 %51 to i32
  %53 = zext i16 %51 to i64
  %54 = getelementptr i8, ptr %44, i64 %53
  %55 = getelementptr inbounds i8, ptr %54, i64 12
  %56 = load i16, ptr %55, align 4
  %57 = lshr i16 %56, 2
  %58 = and i16 %57, 60
  %59 = zext nneg i16 %58 to i32
  %60 = sub nsw i32 %52, %49
  %61 = add nsw i32 %60, %59
  br label %108

62:                                               ; preds = %3
  %63 = load ptr, ptr %0, align 8
  %64 = getelementptr inbounds i8, ptr %63, i64 18
  %65 = load volatile i8, ptr %64, align 2
  %66 = icmp eq i8 %65, 12
  %67 = select i1 %66, i64 208, i64 2256
  %68 = getelementptr inbounds i8, ptr %63, i64 %67
  %69 = load ptr, ptr %68, align 8
  %70 = icmp eq ptr %69, null
  br i1 %70, label %104, label %71

71:                                               ; preds = %62
  switch i32 %1, label %93 [
    i32 1005, label %72
    i32 1006, label %83
  ]

72:                                               ; preds = %71
  %73 = getelementptr inbounds i8, ptr %69, i64 12
  %74 = load i32, ptr %69, align 4
  %75 = zext i32 %74 to i64
  %76 = getelementptr i8, ptr %73, i64 %75
  %77 = getelementptr inbounds i8, ptr %69, i64 4
  %78 = load i32, ptr %77, align 4
  %79 = zext i32 %78 to i64
  %80 = getelementptr i8, ptr %76, i64 %79
  %81 = getelementptr inbounds i8, ptr %69, i64 8
  %82 = load i32, ptr %81, align 4
  br label %104

83:                                               ; preds = %71
  %84 = getelementptr inbounds i8, ptr %69, i64 12
  %85 = load i32, ptr %69, align 4
  %86 = zext i32 %85 to i64
  %87 = getelementptr i8, ptr %84, i64 %86
  %88 = getelementptr inbounds i8, ptr %69, i64 4
  %89 = load i32, ptr %88, align 4
  %90 = getelementptr inbounds i8, ptr %69, i64 8
  %91 = load i32, ptr %90, align 4
  %92 = add i32 %91, %89
  br label %104

93:                                               ; preds = %71
  %94 = load i32, ptr %69, align 4
  %95 = icmp eq i32 %94, 0
  br i1 %95, label %104, label %96

96:                                               ; preds = %93
  %97 = getelementptr inbounds i8, ptr %69, i64 12
  %98 = getelementptr inbounds i8, ptr %69, i64 4
  %99 = load i32, ptr %98, align 4
  %100 = add i32 %99, %94
  %101 = getelementptr inbounds i8, ptr %69, i64 8
  %102 = load i32, ptr %101, align 4
  %103 = add i32 %100, %102
  br label %104

104:                                              ; preds = %96, %93, %83, %72, %62
  %105 = phi ptr [ null, %62 ], [ null, %93 ], [ %80, %72 ], [ %87, %83 ], [ %97, %96 ]
  %106 = phi i32 [ 0, %62 ], [ 0, %93 ], [ %82, %72 ], [ %92, %83 ], [ %103, %96 ]
  %107 = phi i1 [ false, %62 ], [ false, %93 ], [ true, %72 ], [ true, %83 ], [ true, %96 ]
  br i1 %107, label %108, label %111

108:                                              ; preds = %104, %42, %22, %8
  %109 = phi ptr [ %10, %8 ], [ %28, %22 ], [ %48, %42 ], [ %105, %104 ]
  %110 = phi i32 [ %21, %8 ], [ %41, %22 ], [ %61, %42 ], [ %106, %104 ]
  store ptr %109, ptr %2, align 8
  br label %111

111:                                              ; preds = %108, %104
  %112 = phi i32 [ %110, %108 ], [ -2, %104 ]
  ret i32 %112
}

; Function Attrs: fn_ret_thunk_extern nounwind null_pointer_is_valid
define dso_local i64 @bpf_sock_ops_getsockopt(i64 noundef %0, i64 noundef %1, i64 noundef %2, i64 noundef %3, i64 noundef %4) #0 align 16 {
  %6 = alloca ptr, align 8
  %7 = inttoptr i64 %0 to ptr
  %8 = trunc i64 %1 to i32
  %9 = trunc i64 %2 to i32
  %10 = inttoptr i64 %3 to ptr
  %11 = trunc i64 %4 to i32
  %12 = icmp eq i32 %8, 6
  %13 = add i32 %9, -1005
  %14 = icmp ult i32 %13, 3
  %15 = and i1 %12, %14
  br i1 %15, label %16, label %32

16:                                               ; preds = %5
  call void @llvm.lifetime.start.p0(i64 8, ptr nonnull %6) #34
  store ptr null, ptr %6, align 8, !annotation !7
  %17 = call fastcc i32 @bpf_sock_ops_get_syn(ptr noundef %7, i32 noundef %9, ptr noundef nonnull %6)
  %18 = icmp sgt i32 %17, 0
  br i1 %18, label %19, label %25

19:                                               ; preds = %16
  %20 = icmp sgt i32 %17, %11
  %21 = select i1 %20, i32 -28, i32 %17
  %22 = tail call i32 @llvm.smin.i32(i32 %17, i32 %11)
  %23 = load ptr, ptr %6, align 8
  %24 = sext i32 %22 to i64
  tail call void @llvm.memcpy.p0.p0.i64(ptr align 1 %10, ptr align 1 %23, i64 %24, i1 false)
  br label %25

25:                                               ; preds = %19, %16
  %26 = phi i32 [ %21, %19 ], [ %17, %16 ]
  %27 = phi i32 [ %22, %19 ], [ 0, %16 ]
  %28 = sext i32 %27 to i64
  %29 = getelementptr i8, ptr %10, i64 %28
  %30 = sub i32 %11, %27
  %31 = sext i32 %30 to i64
  tail call void @llvm.memset.p0.i64(ptr align 1 %29, i8 0, i64 %31, i1 false)
  call void @llvm.lifetime.end.p0(i64 8, ptr nonnull %6) #34
  br label %37

32:                                               ; preds = %5
  %33 = load ptr, ptr %7, align 8
  %34 = getelementptr inbounds i8, ptr %33, i64 18
  %35 = load volatile i8, ptr %34, align 2
  %36 = tail call fastcc i32 @__bpf_getsockopt(ptr noundef %33, i32 noundef %8, i32 noundef %9, ptr noundef %10, i32 noundef %11)
  br label %37

37:                                               ; preds = %32, %25
  %38 = phi i32 [ %26, %25 ], [ %36, %32 ]
  %39 = sext i32 %38 to i64
  ret i64 %39
}