; Function Attrs: fn_ret_thunk_extern nounwind null_pointer_is_valid
define dso_local i64 @bpf_sock_ops_getsockopt(i64 noundef %0, i64 noundef %1, i64 noundef %2, i64 noundef %3, i64 noundef %4) #0 align 16 {
  %6 = inttoptr i64 %0 to ptr
  %7 = trunc i64 %1 to i32
  %8 = trunc i64 %2 to i32
  %9 = inttoptr i64 %3 to ptr
  %10 = trunc i64 %4 to i32
  %11 = icmp eq i32 %7, 6
  %12 = add i32 %8, -1005
  %13 = icmp ult i32 %12, 3
  %14 = and i1 %11, %13
  br i1 %14, label %15, label %129

15:                                               ; preds = %5
  %16 = getelementptr inbounds i8, ptr %6, i64 24
  %17 = load ptr, ptr %16, align 8
  %18 = icmp eq ptr %17, null
  br i1 %18, label %74, label %19

19:                                               ; preds = %15
  switch i32 %8, label %54 [
    i32 1005, label %20
    i32 1006, label %34
  ]

20:                                               ; preds = %19
  %21 = getelementptr inbounds i8, ptr %17, i64 200
  %22 = load ptr, ptr %21, align 8
  %23 = getelementptr inbounds i8, ptr %17, i64 192
  %24 = load ptr, ptr %23, align 8
  %25 = getelementptr inbounds i8, ptr %17, i64 178
  %26 = load i16, ptr %25, align 2
  %27 = zext i16 %26 to i64
  %28 = getelementptr i8, ptr %24, i64 %27
  %29 = getelementptr inbounds i8, ptr %28, i64 12
  %30 = load i16, ptr %29, align 4
  %31 = lshr i16 %30, 2
  %32 = and i16 %31, 60
  %33 = zext nneg i16 %32 to i32
  br label %bpf_sock_ops_get_syn.exit

34:                                               ; preds = %19
  %35 = getelementptr inbounds i8, ptr %17, i64 192
  %36 = load ptr, ptr %35, align 8
  %37 = getelementptr inbounds i8, ptr %17, i64 180
  %38 = load i16, ptr %37, align 4
  %39 = zext i16 %38 to i64
  %40 = getelementptr i8, ptr %36, i64 %39
  %41 = getelementptr inbounds i8, ptr %17, i64 178
  %42 = load i16, ptr %41, align 2
  %43 = zext i16 %42 to i32
  %44 = zext i16 %38 to i32
  %45 = sub nsw i32 %43, %44
  %46 = zext i16 %42 to i64
  %47 = getelementptr i8, ptr %36, i64 %46
  %48 = getelementptr inbounds i8, ptr %47, i64 12
  %49 = load i16, ptr %48, align 4
  %50 = lshr i16 %49, 2
  %51 = and i16 %50, 60
  %52 = zext nneg i16 %51 to i32
  %53 = add nsw i32 %45, %52
  br label %bpf_sock_ops_get_syn.exit

54:                                               ; preds = %19
  %55 = getelementptr inbounds i8, ptr %17, i64 192
  %56 = load ptr, ptr %55, align 8
  %57 = getelementptr inbounds i8, ptr %17, i64 182
  %58 = load i16, ptr %57, align 2
  %59 = zext i16 %58 to i64
  %60 = getelementptr i8, ptr %56, i64 %59
  %61 = zext i16 %58 to i32
  %62 = getelementptr inbounds i8, ptr %17, i64 178
  %63 = load i16, ptr %62, align 2
  %64 = zext i16 %63 to i32
  %65 = zext i16 %63 to i64
  %66 = getelementptr i8, ptr %56, i64 %65
  %67 = getelementptr inbounds i8, ptr %66, i64 12
  %68 = load i16, ptr %67, align 4
  %69 = lshr i16 %68, 2
  %70 = and i16 %69, 60
  %71 = zext nneg i16 %70 to i32
  %72 = sub nsw i32 %64, %61
  %73 = add nsw i32 %72, %71
  br label %bpf_sock_ops_get_syn.exit

74:                                               ; preds = %15
  %75 = load ptr, ptr %6, align 8
  %76 = getelementptr inbounds i8, ptr %75, i64 18
  %77 = load volatile i8, ptr %76, align 2
  %78 = icmp eq i8 %77, 12
  %79 = select i1 %78, i64 208, i64 2256
  %80 = getelementptr inbounds i8, ptr %75, i64 %79
  %81 = load ptr, ptr %80, align 8
  %82 = icmp eq ptr %81, null
  br i1 %82, label %bpf_sock_ops_get_syn.exit.thread, label %83

83:                                               ; preds = %74
  switch i32 %8, label %105 [
    i32 1005, label %84
    i32 1006, label %95
  ]

84:                                               ; preds = %83
  %85 = getelementptr inbounds i8, ptr %81, i64 12
  %86 = load i32, ptr %81, align 4
  %87 = zext i32 %86 to i64
  %88 = getelementptr i8, ptr %85, i64 %87
  %89 = getelementptr inbounds i8, ptr %81, i64 4
  %90 = load i32, ptr %89, align 4
  %91 = zext i32 %90 to i64
  %92 = getelementptr i8, ptr %88, i64 %91
  %93 = getelementptr inbounds i8, ptr %81, i64 8
  %94 = load i32, ptr %93, align 4
  br label %bpf_sock_ops_get_syn.exit

95:                                               ; preds = %83
  %96 = getelementptr inbounds i8, ptr %81, i64 12
  %97 = load i32, ptr %81, align 4
  %98 = zext i32 %97 to i64
  %99 = getelementptr i8, ptr %96, i64 %98
  %100 = getelementptr inbounds i8, ptr %81, i64 4
  %101 = load i32, ptr %100, align 4
  %102 = getelementptr inbounds i8, ptr %81, i64 8
  %103 = load i32, ptr %102, align 4
  %104 = add i32 %103, %101
  br label %bpf_sock_ops_get_syn.exit

105:                                              ; preds = %83
  %106 = load i32, ptr %81, align 4
  %107 = icmp eq i32 %106, 0
  br i1 %107, label %bpf_sock_ops_get_syn.exit.thread, label %108

108:                                              ; preds = %105
  %109 = getelementptr inbounds i8, ptr %81, i64 12
  %110 = getelementptr inbounds i8, ptr %81, i64 4
  %111 = load i32, ptr %110, align 4
  %112 = add i32 %111, %106
  %113 = getelementptr inbounds i8, ptr %81, i64 8
  %114 = load i32, ptr %113, align 4
  %115 = add i32 %112, %114
  br label %bpf_sock_ops_get_syn.exit

bpf_sock_ops_get_syn.exit:                        ; preds = %20, %34, %54, %84, %95, %108
  %.0 = phi ptr [ %22, %20 ], [ %40, %34 ], [ %60, %54 ], [ %109, %108 ], [ %99, %95 ], [ %92, %84 ]
  %116 = phi i32 [ %33, %20 ], [ %53, %34 ], [ %73, %54 ], [ %115, %108 ], [ %104, %95 ], [ %94, %84 ]
  %117 = icmp sgt i32 %116, 0
  br i1 %117, label %118, label %bpf_sock_ops_get_syn.exit.thread

118:                                              ; preds = %bpf_sock_ops_get_syn.exit
  %119 = icmp sgt i32 %116, %10
  %120 = select i1 %119, i32 -28, i32 %116
  %121 = tail call i32 @llvm.smin.i32(i32 %116, i32 %10)
  %122 = sext i32 %121 to i64
  tail call void @llvm.memcpy.p0.p0.i64(ptr align 1 %9, ptr align 1 %.0, i64 %122, i1 false)
  br label %bpf_sock_ops_get_syn.exit.thread

bpf_sock_ops_get_syn.exit.thread:                 ; preds = %74, %105, %118, %bpf_sock_ops_get_syn.exit
  %123 = phi i32 [ %120, %118 ], [ %116, %bpf_sock_ops_get_syn.exit ], [ -2, %105 ], [ -2, %74 ]
  %124 = phi i32 [ %121, %118 ], [ 0, %bpf_sock_ops_get_syn.exit ], [ 0, %105 ], [ 0, %74 ]
  %125 = sext i32 %124 to i64
  %126 = getelementptr i8, ptr %9, i64 %125
  %127 = sub i32 %10, %124
  %128 = sext i32 %127 to i64
  tail call void @llvm.memset.p0.i64(ptr align 1 %126, i8 0, i64 %128, i1 false)
  br label %134

129:                                              ; preds = %5
  %130 = load ptr, ptr %6, align 8
  %131 = getelementptr inbounds i8, ptr %130, i64 18
  %132 = load volatile i8, ptr %131, align 2
  %133 = tail call fastcc i32 @__bpf_getsockopt(ptr noundef %130, i32 noundef %7, i32 noundef %8, ptr noundef %9, i32 noundef %10)
  br label %134

134:                                              ; preds = %129, %bpf_sock_ops_get_syn.exit.thread
  %135 = phi i32 [ %123, %bpf_sock_ops_get_syn.exit.thread ], [ %133, %129 ]
  %136 = sext i32 %135 to i64
  ret i64 %136
}